target datalayout = "e-m:e-p270:32:32-p271:32:32-p272:64:64-i64:64-i128:128-f80:128-n8:16:32:64-S128"
target triple = "x86_64-pc-linux-gnu"

%struct.yyParser = type { ptr, i32, ptr, [100 x %struct.yyStackEntry], ptr }
%struct.yyStackEntry = type { i8, i8, %union.YYMINORTYPE }
%union.YYMINORTYPE = type { %struct.token_t, [40 x i8] }
%struct.token_t = type { i64, i64, i64, i64 }
%struct.busmaster_state_t = type { ptr, i64, ptr, i32, ptr, %struct.token_t, i32, %struct.busmaster_priv_t, %struct.msg_t }
%struct.busmaster_priv_t = type { i64, i64, i32, i32, i32, %struct.msg_date_t, %struct.msg_time_t }
%struct.msg_date_t = type { i32, i32, i32 }
%struct.msg_time_t = type { i32, i32, i32, i32 }
%struct.msg_t = type { %struct.msg_time_t, i32, i32, %struct.msg_data_t }
%struct.msg_data_t = type { i32, [64 x i8] }

; Function Attrs: nounwind null_pointer_is_valid sspstrong uwtable
define internal void @yy_destructor(ptr noundef %0, i8 noundef zeroext %1, ptr noundef %2) #0 {
  %4 = alloca ptr, align 8
  %5 = alloca i8, align 1
  %6 = alloca ptr, align 8
  %7 = alloca ptr, align 8
  store ptr %0, ptr %4, align 8
  store i8 %1, ptr %5, align 1
  store ptr %2, ptr %6, align 8
  call void @llvm.lifetime.start.p0(i64 8, ptr %7) #10
  %8 = load ptr, ptr %4, align 8
  %9 = getelementptr inbounds nuw %struct.yyParser, ptr %8, i32 0, i32 2
  %10 = load ptr, ptr %9, align 8
  store ptr %10, ptr %7, align 8
  %11 = load i8, ptr %5, align 1
  %12 = zext i8 %11 to i32
  switch i32 %12, label %14 [
    i32 1, label %13
    i32 2, label %13
    i32 3, label %13
    i32 4, label %13
    i32 5, label %13
    i32 6, label %13
    i32 7, label %13
    i32 8, label %13
    i32 9, label %13
    i32 10, label %13
    i32 11, label %13
    i32 12, label %13
    i32 13, label %13
    i32 14, label %13
    i32 15, label %13
    i32 16, label %13
    i32 17, label %13
    i32 18, label %13
    i32 19, label %13
  ]

13:                                               ; preds = %3, %3, %3, %3, %3, %3, %3, %3, %3, %3, %3, %3, %3, %3, %3, %3, %3, %3, %3
  br label %15

14:                                               ; preds = %3
  br label %15

15:                                               ; preds = %14, %13
  call void @llvm.lifetime.end.p0(i64 8, ptr %7) #10
  ret void
}

; Function Attrs: null_pointer_is_valid sspstrong uwtable
define internal void @yy_pop_parser_stack(ptr noundef %0) #2 {
  %2 = alloca ptr, align 8
  %3 = alloca ptr, align 8
  store ptr %0, ptr %2, align 8
  call void @llvm.lifetime.start.p0(i64 8, ptr %3) #10
  %4 = load ptr, ptr %2, align 8
  %5 = getelementptr inbounds nuw %struct.yyParser, ptr %4, i32 0, i32 0
  %6 = load ptr, ptr %5, align 8
  %7 = getelementptr %struct.yyStackEntry, ptr %6, i32 -1
  store ptr %7, ptr %5, align 8
  store ptr %6, ptr %3, align 8
  %8 = load ptr, ptr %2, align 8
  %9 = load ptr, ptr %3, align 8
  %10 = getelementptr inbounds nuw %struct.yyStackEntry, ptr %9, i32 0, i32 1
  %11 = load i8, ptr %10, align 1
  %12 = load ptr, ptr %3, align 8
  %13 = getelementptr inbounds nuw %struct.yyStackEntry, ptr %12, i32 0, i32 2
  call void @yy_destructor(ptr noundef %8, i8 noundef zeroext %11, ptr noundef %13)
  call void @llvm.lifetime.end.p0(i64 8, ptr %3) #10
  ret void
}

; Function Attrs: null_pointer_is_valid sspstrong uwtable
define hidden void @BusmasterParserFinalize(ptr noundef %0) #2 {
  %2 = alloca ptr, align 8
  %3 = alloca ptr, align 8
  store ptr %0, ptr %2, align 8
  call void @llvm.lifetime.start.p0(i64 8, ptr %3) #10
  %4 = load ptr, ptr %2, align 8
  store ptr %4, ptr %3, align 8
  br label %5

5:                                                ; preds = %13, %1
  %6 = load ptr, ptr %3, align 8
  %7 = getelementptr inbounds nuw %struct.yyParser, ptr %6, i32 0, i32 0
  %8 = load ptr, ptr %7, align 8
  %9 = load ptr, ptr %3, align 8
  %10 = getelementptr inbounds nuw %struct.yyParser, ptr %9, i32 0, i32 3
  %11 = getelementptr inbounds [100 x %struct.yyStackEntry], ptr %10, i64 0, i64 0
  %12 = icmp ugt ptr %8, %11
  br i1 %12, label %13, label %15

13:                                               ; preds = %5
  %14 = load ptr, ptr %3, align 8
  call void @yy_pop_parser_stack(ptr noundef %14)
  br label %5, !llvm.loop !6

15:                                               ; preds = %5
  call void @llvm.lifetime.end.p0(i64 8, ptr %3) #10
  ret void
}

; Function Attrs: nounwind null_pointer_is_valid sspstrong uwtable
define hidden void @BusmasterParserInit(ptr noundef %0) #0 {
  %2 = alloca ptr, align 8
  %3 = alloca ptr, align 8
  store ptr %0, ptr %2, align 8
  call void @llvm.lifetime.start.p0(i64 8, ptr %3) #10
  %4 = load ptr, ptr %2, align 8
  store ptr %4, ptr %3, align 8
  %5 = load ptr, ptr %3, align 8
  %6 = getelementptr inbounds nuw %struct.yyParser, ptr %5, i32 0, i32 1
  store i32 -1, ptr %6, align 8
  %7 = load ptr, ptr %3, align 8
  %8 = getelementptr inbounds nuw %struct.yyParser, ptr %7, i32 0, i32 3
  %9 = getelementptr inbounds [100 x %struct.yyStackEntry], ptr %8, i64 0, i64 0
  %10 = load ptr, ptr %3, align 8
  %11 = getelementptr inbounds nuw %struct.yyParser, ptr %10, i32 0, i32 0
  store ptr %9, ptr %11, align 8
  %12 = load ptr, ptr %3, align 8
  %13 = getelementptr inbounds nuw %struct.yyParser, ptr %12, i32 0, i32 3
  %14 = getelementptr [100 x %struct.yyStackEntry], ptr %13, i64 0, i64 0
  %15 = getelementptr inbounds nuw %struct.yyStackEntry, ptr %14, i32 0, i32 0
  store i8 0, ptr %15, align 8
  %16 = load ptr, ptr %3, align 8
  %17 = getelementptr inbounds nuw %struct.yyParser, ptr %16, i32 0, i32 3
  %18 = getelementptr [100 x %struct.yyStackEntry], ptr %17, i64 0, i64 0
  %19 = getelementptr inbounds nuw %struct.yyStackEntry, ptr %18, i32 0, i32 1
  store i8 0, ptr %19, align 1
  %20 = load ptr, ptr %3, align 8
  %21 = getelementptr inbounds nuw %struct.yyParser, ptr %20, i32 0, i32 3
  %22 = getelementptr [100 x %struct.yyStackEntry], ptr %21, i64 0, i64 99
  %23 = load ptr, ptr %3, align 8
  %24 = getelementptr inbounds nuw %struct.yyParser, ptr %23, i32 0, i32 4
  store ptr %22, ptr %24, align 8
  call void @llvm.lifetime.end.p0(i64 8, ptr %3) #10
  ret void
}

; Function Attrs: null_pointer_is_valid sspstrong uwtable
define hidden void @BusmasterParserFree(ptr noundef %0, ptr noundef %1) #2 {
  %3 = alloca ptr, align 8
  %4 = alloca ptr, align 8
  store ptr %0, ptr %3, align 8
  store ptr %1, ptr %4, align 8
  %5 = load ptr, ptr %3, align 8
  %6 = icmp eq ptr %5, null
  br i1 %6, label %7, label %8

7:                                                ; preds = %2
  br label %12

8:                                                ; preds = %2
  %9 = load ptr, ptr %3, align 8
  call void @BusmasterParserFinalize(ptr noundef %9)
  %10 = load ptr, ptr %4, align 8
  %11 = load ptr, ptr %3, align 8
  call void %10(ptr noundef %11)
  br label %12

12:                                               ; preds = %8, %7
  ret void
}

; Function Attrs: null_pointer_is_valid sspstrong uwtable
define hidden ptr @BusmasterParserAlloc(ptr noundef %0) #2 {
  %2 = alloca ptr, align 8
  %3 = alloca ptr, align 8
  store ptr %0, ptr %2, align 8
  call void @llvm.lifetime.start.p0(i64 8, ptr %3) #10
  %4 = load ptr, ptr %2, align 8
  %5 = call ptr %4(i64 noundef 8032)
  store ptr %5, ptr %3, align 8
  %6 = load ptr, ptr %3, align 8
  %7 = icmp ne ptr %6, null
  br i1 %7, label %8, label %10

8:                                                ; preds = %1
  %9 = load ptr, ptr %3, align 8
  call void @BusmasterParserInit(ptr noundef %9)
  br label %10

10:                                               ; preds = %8, %1
  %11 = load ptr, ptr %3, align 8
  call void @llvm.lifetime.end.p0(i64 8, ptr %3) #10
  ret ptr %11
}

; Function Attrs: null_pointer_is_valid sspstrong uwtable
define hidden zeroext i1 @run_busmaster_parser(ptr noundef %0, ptr noundef %1, ptr noundef %2) #2 {
  %4 = alloca i1, align 1
  %5 = alloca ptr, align 8
  %6 = alloca ptr, align 8
  %7 = alloca ptr, align 8
  %8 = alloca i32, align 4
  %9 = alloca ptr, align 8
  %10 = alloca ptr, align 8
  %11 = alloca i32, align 4
  store ptr %0, ptr %5, align 8
  store ptr %1, ptr %6, align 8
  store ptr %2, ptr %7, align 8
  call void @llvm.lifetime.start.p0(i64 4, ptr %8) #10
  call void @llvm.lifetime.start.p0(i64 8, ptr %9) #10
  call void @llvm.lifetime.start.p0(i64 8, ptr %10) #10
  %12 = load ptr, ptr %5, align 8
  %13 = getelementptr inbounds nuw %struct.busmaster_state_t, ptr %12, i32 0, i32 6
  store i32 0, ptr %13, align 8
  %14 = load ptr, ptr %5, align 8
  %15 = getelementptr inbounds nuw %struct.busmaster_state_t, ptr %14, i32 0, i32 2
  store ptr null, ptr %15, align 8
  %16 = load ptr, ptr %5, align 8
  %17 = getelementptr inbounds nuw %struct.busmaster_state_t, ptr %16, i32 0, i32 3
  store i32 0, ptr %17, align 8
  %18 = load ptr, ptr %5, align 8
  %19 = getelementptr inbounds nuw %struct.busmaster_state_t, ptr %18, i32 0, i32 4
  store ptr null, ptr %19, align 8
  %20 = load ptr, ptr %5, align 8
  %21 = call i32 @busmaster_lex_init_extra(ptr noundef %20, ptr noundef %9)
  %22 = icmp ne i32 %21, 0
  br i1 %22, label %23, label %32

23:                                               ; preds = %3
  %24 = call ptr @__errno_location() #11
  %25 = load i32, ptr %24, align 4
  %26 = load ptr, ptr %6, align 8
  store i32 %25, ptr %26, align 4
  %27 = call ptr @__errno_location() #11
  %28 = load i32, ptr %27, align 4
  %29 = call ptr @g_strerror(i32 noundef %28) #11
  %30 = call noalias ptr @g_strdup(ptr noundef %29)
  %31 = load ptr, ptr %7, align 8
  store ptr %30, ptr %31, align 8
  store i1 false, ptr %4, align 1
  store i32 1, ptr %11, align 4
  br label %111

32:                                               ; preds = %3
  %33 = call ptr @BusmasterParserAlloc(ptr noundef @g_malloc0)
  store ptr %33, ptr %10, align 8
  br label %34

34:                                               ; preds = %58, %32
  %35 = load ptr, ptr %9, align 8
  %36 = call i32 @busmaster_lex(ptr noundef %35)
  store i32 %36, ptr %8, align 4
  %37 = load ptr, ptr %10, align 8
  %38 = load i32, ptr %8, align 4
  %39 = load ptr, ptr %5, align 8
  %40 = getelementptr inbounds nuw %struct.busmaster_state_t, ptr %39, i32 0, i32 5
  %41 = load ptr, ptr %5, align 8
  call void @BusmasterParser(ptr noundef %37, i32 noundef %38, ptr noundef byval(%struct.token_t) align 8 %40, ptr noundef %41)
  %42 = load ptr, ptr %5, align 8
  %43 = getelementptr inbounds nuw %struct.busmaster_state_t, ptr %42, i32 0, i32 3
  %44 = load i32, ptr %43, align 8
  %45 = icmp ne i32 %44, 0
  br i1 %45, label %56, label %46

46:                                               ; preds = %34
  %47 = load ptr, ptr %5, align 8
  %48 = getelementptr inbounds nuw %struct.busmaster_state_t, ptr %47, i32 0, i32 4
  %49 = load ptr, ptr %48, align 8
  %50 = icmp ne ptr %49, null
  br i1 %50, label %56, label %51

51:                                               ; preds = %46
  %52 = load ptr, ptr %5, align 8
  %53 = getelementptr inbounds nuw %struct.busmaster_state_t, ptr %52, i32 0, i32 2
  %54 = load ptr, ptr %53, align 8
  %55 = icmp ne ptr %54, null
  br i1 %55, label %56, label %57

56:                                               ; preds = %51, %46, %34
  br label %61

57:                                               ; preds = %51
  br label %58

58:                                               ; preds = %57
  %59 = load i32, ptr %8, align 4
  %60 = icmp ne i32 %59, 0
  br i1 %60, label %34, label %61, !llvm.loop !10

61:                                               ; preds = %58, %56
  %62 = load ptr, ptr %10, align 8
  call void @BusmasterParserFree(ptr noundef %62, ptr noundef @g_free)
  %63 = load ptr, ptr %9, align 8
  %64 = call i32 @busmaster_lex_destroy(ptr noundef %63)
  %65 = load ptr, ptr %5, align 8
  %66 = getelementptr inbounds nuw %struct.busmaster_state_t, ptr %65, i32 0, i32 3
  %67 = load i32, ptr %66, align 8
  %68 = icmp ne i32 %67, 0
  br i1 %68, label %79, label %69

69:                                               ; preds = %61
  %70 = load ptr, ptr %5, align 8
  %71 = getelementptr inbounds nuw %struct.busmaster_state_t, ptr %70, i32 0, i32 4
  %72 = load ptr, ptr %71, align 8
  %73 = icmp ne ptr %72, null
  br i1 %73, label %79, label %74

74:                                               ; preds = %69
  %75 = load ptr, ptr %5, align 8
  %76 = getelementptr inbounds nuw %struct.busmaster_state_t, ptr %75, i32 0, i32 2
  %77 = load ptr, ptr %76, align 8
  %78 = icmp ne ptr %77, null
  br i1 %78, label %79, label %110

79:                                               ; preds = %74, %69, %61
  %80 = load ptr, ptr %5, align 8
  %81 = getelementptr inbounds nuw %struct.busmaster_state_t, ptr %80, i32 0, i32 4
  %82 = load ptr, ptr %81, align 8
  %83 = icmp ne ptr %82, null
  br i1 %83, label %84, label %92

84:                                               ; preds = %79
  %85 = load ptr, ptr %5, align 8
  %86 = getelementptr inbounds nuw %struct.busmaster_state_t, ptr %85, i32 0, i32 4
  %87 = load ptr, ptr %86, align 8
  %88 = load ptr, ptr %7, align 8
  store ptr %87, ptr %88, align 8
  %89 = load ptr, ptr %5, align 8
  %90 = getelementptr inbounds nuw %struct.busmaster_state_t, ptr %89, i32 0, i32 2
  %91 = load ptr, ptr %90, align 8
  call void @g_free(ptr noundef %91)
  br label %97

92:                                               ; preds = %79
  %93 = load ptr, ptr %5, align 8
  %94 = getelementptr inbounds nuw %struct.busmaster_state_t, ptr %93, i32 0, i32 2
  %95 = load ptr, ptr %94, align 8
  %96 = load ptr, ptr %7, align 8
  store ptr %95, ptr %96, align 8
  br label %97

97:                                               ; preds = %92, %84
  %98 = load ptr, ptr %5, align 8
  %99 = getelementptr inbounds nuw %struct.busmaster_state_t, ptr %98, i32 0, i32 3
  %100 = load i32, ptr %99, align 8
  %101 = icmp ne i32 %100, 0
  br i1 %101, label %102, label %107

102:                                              ; preds = %97
  %103 = load ptr, ptr %5, align 8
  %104 = getelementptr inbounds nuw %struct.busmaster_state_t, ptr %103, i32 0, i32 3
  %105 = load i32, ptr %104, align 8
  %106 = load ptr, ptr %6, align 8
  store i32 %105, ptr %106, align 4
  br label %109

107:                                              ; preds = %97
  %108 = load ptr, ptr %6, align 8
  store i32 -13, ptr %108, align 4
  br label %109

109:                                              ; preds = %107, %102
  store i1 false, ptr %4, align 1
  store i32 1, ptr %11, align 4
  br label %111

110:                                              ; preds = %74
  store i1 true, ptr %4, align 1
  store i32 1, ptr %11, align 4
  br label %111

111:                                              ; preds = %110, %109, %23
  call void @llvm.lifetime.end.p0(i64 8, ptr %10) #10
  call void @llvm.lifetime.end.p0(i64 8, ptr %9) #10
  call void @llvm.lifetime.end.p0(i64 4, ptr %8) #10
  %112 = load i1, ptr %4, align 1
  ret i1 %112
}