; Function Attrs: null_pointer_is_valid sspstrong uwtable
define hidden noundef zeroext i1 @run_busmaster_parser(ptr noundef initializes((16, 28), (32, 40), (72, 76)) %0, ptr noundef writeonly captures(none) %1, ptr noundef writeonly captures(none) %2) local_unnamed_addr #2 {
  %4 = alloca ptr, align 8
  call void @llvm.lifetime.start.p0(i64 8, ptr nonnull %4) #13
  %5 = getelementptr inbounds nuw i8, ptr %0, i64 72
  store i32 0, ptr %5, align 8
  %6 = getelementptr inbounds nuw i8, ptr %0, i64 16
  store ptr null, ptr %6, align 8
  %7 = getelementptr inbounds nuw i8, ptr %0, i64 24
  store i32 0, ptr %7, align 8
  %8 = getelementptr inbounds nuw i8, ptr %0, i64 32
  store ptr null, ptr %8, align 8
  %9 = call i32 @busmaster_lex_init_extra(ptr noundef %0, ptr noundef nonnull %4)
  %.not = icmp eq i32 %9, 0
  br i1 %.not, label %15, label %10

10:                                               ; preds = %3
  %11 = tail call ptr @__errno_location() #14
  %12 = load i32, ptr %11, align 4
  store i32 %12, ptr %1, align 4
  %13 = call ptr @g_strerror(i32 noundef %12) #14
  %14 = call noalias ptr @g_strdup(ptr noundef %13)
  store ptr %14, ptr %2, align 8
  br label %53

15:                                               ; preds = %3
  %16 = call dereferenceable_or_null(8032) ptr @g_malloc0(i64 noundef 8032)
  %.not.i = icmp eq ptr %16, null
  br i1 %.not.i, label %BusmasterParserAlloc.exit, label %17

17:                                               ; preds = %15
  %18 = getelementptr inbounds nuw i8, ptr %16, i64 8
  store i32 -1, ptr %18, align 8
  %19 = getelementptr inbounds nuw i8, ptr %16, i64 24
  store ptr %19, ptr %16, align 8
  store i8 0, ptr %19, align 8
  %20 = getelementptr inbounds nuw i8, ptr %16, i64 25
  store i8 0, ptr %20, align 1
  %21 = getelementptr i8, ptr %16, i64 7944
  %22 = getelementptr inbounds nuw i8, ptr %16, i64 8024
  store ptr %21, ptr %22, align 8
  br label %BusmasterParserAlloc.exit

BusmasterParserAlloc.exit:                        ; preds = %15, %17
  %23 = getelementptr inbounds nuw i8, ptr %0, i64 40
  br label %24

24:                                               ; preds = %30, %BusmasterParserAlloc.exit
  %25 = load ptr, ptr %4, align 8
  %26 = call i32 @busmaster_lex(ptr noundef %25)
  call void @BusmasterParser(ptr noundef %16, i32 noundef %26, ptr noundef nonnull byval(%struct.token_t) align 8 %23, ptr noundef %0)
  %27 = load i32, ptr %7, align 8
  %.not32 = icmp eq i32 %27, 0
  br i1 %.not32, label %28, label %34

28:                                               ; preds = %24
  %29 = load ptr, ptr %8, align 8
  %.not33 = icmp eq ptr %29, null
  br i1 %.not33, label %30, label %34

30:                                               ; preds = %28
  %31 = load ptr, ptr %6, align 8
  %32 = icmp eq ptr %31, null
  %33 = icmp ne i32 %26, 0
  %or.cond = and i1 %33, %32
  br i1 %or.cond, label %24, label %34, !llvm.loop !18

34:                                               ; preds = %24, %28, %30
  br i1 %.not.i, label %BusmasterParserFree.exit, label %35

35:                                               ; preds = %34
  %36 = getelementptr inbounds nuw i8, ptr %16, i64 24
  %.promoted.i.i = load ptr, ptr %16, align 8
  %37 = icmp ugt ptr %.promoted.i.i, %36
  br i1 %37, label %.lr.ph.i.i, label %BusmasterParserFinalize.exit.i

.lr.ph.i.i:                                       ; preds = %35, %.lr.ph.i.i
  %38 = phi ptr [ %39, %.lr.ph.i.i ], [ %.promoted.i.i, %35 ]
  %39 = getelementptr i8, ptr %38, i64 -80
  %40 = icmp ugt ptr %39, %36
  br i1 %40, label %.lr.ph.i.i, label %._crit_edge.i.i, !llvm.loop !6

._crit_edge.i.i:                                  ; preds = %.lr.ph.i.i
  store ptr %39, ptr %16, align 8
  br label %BusmasterParserFinalize.exit.i

BusmasterParserFinalize.exit.i:                   ; preds = %._crit_edge.i.i, %35
  call void @g_free(ptr noundef nonnull %16)
  br label %BusmasterParserFree.exit

BusmasterParserFree.exit:                         ; preds = %34, %BusmasterParserFinalize.exit.i
  %41 = load ptr, ptr %4, align 8
  %42 = call i32 @busmaster_lex_destroy(ptr noundef %41)
  %43 = load i32, ptr %7, align 8
  %.not34 = icmp eq i32 %43, 0
  %44 = load ptr, ptr %8, align 8
  %.not35 = icmp eq ptr %44, null
  br i1 %.not34, label %45, label %48

45:                                               ; preds = %BusmasterParserFree.exit
  br i1 %.not35, label %46, label %.thread40

46:                                               ; preds = %45
  %47 = load ptr, ptr %6, align 8
  %.not36 = icmp eq ptr %47, null
  br i1 %.not36, label %53, label %.thread

48:                                               ; preds = %BusmasterParserFree.exit
  br i1 %.not35, label %..thread_crit_edge, label %.thread40

..thread_crit_edge:                               ; preds = %48
  %.pre = load ptr, ptr %6, align 8
  br label %.thread

.thread40:                                        ; preds = %45, %48
  store ptr %44, ptr %2, align 8
  %49 = load ptr, ptr %6, align 8
  call void @g_free(ptr noundef %49)
  br label %51

.thread:                                          ; preds = %..thread_crit_edge, %46
  %50 = phi ptr [ %.pre, %..thread_crit_edge ], [ %47, %46 ]
  store ptr %50, ptr %2, align 8
  br label %51

51:                                               ; preds = %.thread, %.thread40
  %52 = load i32, ptr %7, align 8
  %.not38 = icmp eq i32 %52, 0
  %. = select i1 %.not38, i32 -13, i32 %52
  store i32 %., ptr %1, align 4
  br label %53

53:                                               ; preds = %46, %51, %10
  %.0 = phi i1 [ false, %10 ], [ false, %51 ], [ true, %46 ]
  call void @llvm.lifetime.end.p0(i64 8, ptr nonnull %4) #13
  ret i1 %.0
}